target datalayout = "e-m:e-p270:32:32-p271:32:32-p272:64:64-i64:64-i128:128-f80:128-n8:16:32:64-S128"
target triple = "x86_64-pc-linux-gnu"

%class.btSequentialImpulseConstraintSolver = type { %class.btConstraintSolver, %class.btAlignedObjectArray, %class.btAlignedObjectArray.0, %class.btAlignedObjectArray.0, %class.btAlignedObjectArray.0, %class.btAlignedObjectArray.0, %class.btAlignedObjectArray.2, %class.btAlignedObjectArray.2, %class.btAlignedObjectArray.2, %class.btAlignedObjectArray.4, i32, i32, %class.btAlignedObjectArray.2, ptr, ptr, ptr, i32, float, i64, %struct.btSolverAnalyticsData }
%class.btConstraintSolver = type { ptr }
%class.btAlignedObjectArray = type <{ [4 x i8], i32, i32, [4 x i8], ptr, i8, [7 x i8] }>
%class.btAlignedObjectArray.0 = type <{ [4 x i8], i32, i32, [4 x i8], ptr, i8, [7 x i8] }>
%class.btAlignedObjectArray.4 = type <{ [4 x i8], i32, i32, [4 x i8], ptr, i8, [7 x i8] }>
%class.btAlignedObjectArray.2 = type <{ [4 x i8], i32, i32, [4 x i8], ptr, i8, [7 x i8] }>
%struct.btSolverAnalyticsData = type { i32, i32, i32, i32, i32, double }
%class.btVector3 = type { [4 x float] }
%struct.btSolverConstraint = type { %class.btVector3, %class.btVector3, %class.btVector3, %class.btVector3, %class.btVector3, %class.btVector3, float, float, float, float, float, float, float, float, float, %union.anon.6, i32, i32, i32, i32 }
%union.anon.6 = type { ptr }

; Function Attrs: mustprogress uwtable
define linkonce_odr dso_local void @_ZN18btAlignedAllocatorI18btSolverConstraintLj16EE10deallocateEPS0_(ptr noundef nonnull align 1 dereferenceable(1) %0, ptr noundef %1) #2 comdat align 2 {
  %3 = alloca ptr, align 8
  %4 = alloca ptr, align 8
  store ptr %0, ptr %3, align 8, !tbaa !250
  store ptr %1, ptr %4, align 8, !tbaa !16
  %5 = load ptr, ptr %4, align 8, !tbaa !16
  call void @_Z21btAlignedFreeInternalPv(ptr noundef %5)
  ret void
}

; Function Attrs: inlinehint mustprogress nounwind uwtable
define linkonce_odr dso_local noundef ptr @_ZN18btSolverConstraintnwEmPv(i64 noundef %0, ptr noundef %1) #3 comdat align 2 {
  %3 = alloca i64, align 8
  %4 = alloca ptr, align 8
  store i64 %0, ptr %3, align 8, !tbaa !73
  store ptr %1, ptr %4, align 8, !tbaa !72
  %5 = load ptr, ptr %4, align 8, !tbaa !72
  ret ptr %5
}

; Function Attrs: mustprogress uwtable
define linkonce_odr dso_local noundef ptr @_ZN18btAlignedAllocatorI18btSolverConstraintLj16EE8allocateEiPPKS0_(ptr noundef nonnull align 1 dereferenceable(1) %0, i32 noundef %1, ptr noundef %2) #2 comdat align 2 {
  %4 = alloca ptr, align 8
  %5 = alloca i32, align 4
  %6 = alloca ptr, align 8
  store ptr %0, ptr %4, align 8, !tbaa !250
  store i32 %1, ptr %5, align 4, !tbaa !9
  store ptr %2, ptr %6, align 8, !tbaa !269
  %7 = load i32, ptr %5, align 4, !tbaa !9
  %8 = sext i32 %7 to i64
  %9 = mul i64 160, %8
  %10 = call noundef ptr @_Z22btAlignedAllocInternalmi(i64 noundef %9, i32 noundef 16)
  ret ptr %10
}

; Function Attrs: inlinehint mustprogress uwtable
define linkonce_odr dso_local void @_ZN20btAlignedObjectArrayI18btSolverConstraintE10deallocateEv(ptr noundef nonnull align 8 dereferenceable(25) %0) #6 comdat align 2 {
  %2 = alloca ptr, align 8
  store ptr %0, ptr %2, align 8, !tbaa !45
  %3 = load ptr, ptr %2, align 8
  %4 = getelementptr inbounds nuw %class.btAlignedObjectArray.0, ptr %3, i32 0, i32 4
  %5 = load ptr, ptr %4, align 8, !tbaa !120
  %6 = icmp ne ptr %5, null
  br i1 %6, label %7, label %16

7:                                                ; preds = %1
  %8 = getelementptr inbounds nuw %class.btAlignedObjectArray.0, ptr %3, i32 0, i32 5
  %9 = load i8, ptr %8, align 8, !tbaa !252, !range !59, !noundef !60
  %10 = trunc i8 %9 to i1
  br i1 %10, label %11, label %14

11:                                               ; preds = %7
  %12 = getelementptr inbounds nuw %class.btAlignedObjectArray.0, ptr %3, i32 0, i32 4
  %13 = load ptr, ptr %12, align 8, !tbaa !120
  call void @_ZN18btAlignedAllocatorI18btSolverConstraintLj16EE10deallocateEPS0_(ptr noundef nonnull align 1 dereferenceable(1) %3, ptr noundef %13)
  br label %14

14:                                               ; preds = %11, %7
  %15 = getelementptr inbounds nuw %class.btAlignedObjectArray.0, ptr %3, i32 0, i32 4
  store ptr null, ptr %15, align 8, !tbaa !120
  br label %16

16:                                               ; preds = %14, %1
  ret void
}

; Function Attrs: inlinehint mustprogress nounwind uwtable
define linkonce_odr dso_local void @_ZN20btAlignedObjectArrayI18btSolverConstraintE7destroyEii(ptr noundef nonnull align 8 dereferenceable(25) %0, i32 noundef %1, i32 noundef %2) #3 comdat align 2 {
  %4 = alloca ptr, align 8
  %5 = alloca i32, align 4
  %6 = alloca i32, align 4
  %7 = alloca i32, align 4
  store ptr %0, ptr %4, align 8, !tbaa !45
  store i32 %1, ptr %5, align 4, !tbaa !9
  store i32 %2, ptr %6, align 4, !tbaa !9
  call void @llvm.lifetime.start.p0(i64 4, ptr %7) #15
  %8 = load i32, ptr %5, align 4, !tbaa !9
  store i32 %8, ptr %7, align 4, !tbaa !9
  br label %9

9:                                                ; preds = %14, %3
  %10 = load i32, ptr %7, align 4, !tbaa !9
  %11 = load i32, ptr %6, align 4, !tbaa !9
  %12 = icmp slt i32 %10, %11
  br i1 %12, label %13, label %17

13:                                               ; preds = %9
  br label %14

14:                                               ; preds = %13
  %15 = load i32, ptr %7, align 4, !tbaa !9
  %16 = add nsw i32 %15, 1
  store i32 %16, ptr %7, align 4, !tbaa !9
  br label %9, !llvm.loop !263

17:                                               ; preds = %9
  call void @llvm.lifetime.end.p0(i64 4, ptr %7) #15
  ret void
}

; Function Attrs: inlinehint mustprogress uwtable
define linkonce_odr dso_local void @_ZNK20btAlignedObjectArrayI18btSolverConstraintE4copyEiiPS0_(ptr noundef nonnull align 8 dereferenceable(25) %0, i32 noundef %1, i32 noundef %2, ptr noundef %3) #6 comdat align 2 {
  %5 = alloca ptr, align 8
  %6 = alloca i32, align 4
  %7 = alloca i32, align 4
  %8 = alloca ptr, align 8
  %9 = alloca i32, align 4
  store ptr %0, ptr %5, align 8, !tbaa !45
  store i32 %1, ptr %6, align 4, !tbaa !9
  store i32 %2, ptr %7, align 4, !tbaa !9
  store ptr %3, ptr %8, align 8, !tbaa !16
  %10 = load ptr, ptr %5, align 8
  call void @llvm.lifetime.start.p0(i64 4, ptr %9) #15
  %11 = load i32, ptr %6, align 4, !tbaa !9
  store i32 %11, ptr %9, align 4, !tbaa !9
  br label %12

12:                                               ; preds = %27, %4
  %13 = load i32, ptr %9, align 4, !tbaa !9
  %14 = load i32, ptr %7, align 4, !tbaa !9
  %15 = icmp slt i32 %13, %14
  br i1 %15, label %16, label %30

16:                                               ; preds = %12
  %17 = load ptr, ptr %8, align 8, !tbaa !16
  %18 = load i32, ptr %9, align 4, !tbaa !9
  %19 = sext i32 %18 to i64
  %20 = getelementptr inbounds %struct.btSolverConstraint, ptr %17, i64 %19
  %21 = call noundef ptr @_ZN18btSolverConstraintnwEmPv(i64 noundef 160, ptr noundef %20)
  %22 = getelementptr inbounds nuw %class.btAlignedObjectArray.0, ptr %10, i32 0, i32 4
  %23 = load ptr, ptr %22, align 8, !tbaa !120
  %24 = load i32, ptr %9, align 4, !tbaa !9
  %25 = sext i32 %24 to i64
  %26 = getelementptr inbounds %struct.btSolverConstraint, ptr %23, i64 %25
  call void @llvm.memcpy.p0.p0.i64(ptr align 8 %21, ptr align 8 %26, i64 160, i1 false), !tbaa.struct !267
  br label %27

27:                                               ; preds = %16
  %28 = load i32, ptr %9, align 4, !tbaa !9
  %29 = add nsw i32 %28, 1
  store i32 %29, ptr %9, align 4, !tbaa !9
  br label %12, !llvm.loop !268

30:                                               ; preds = %12
  call void @llvm.lifetime.end.p0(i64 4, ptr %9) #15
  ret void
}

; Function Attrs: inlinehint mustprogress uwtable
define linkonce_odr dso_local noundef ptr @_ZN20btAlignedObjectArrayI18btSolverConstraintE8allocateEi(ptr noundef nonnull align 8 dereferenceable(25) %0, i32 noundef %1) #6 comdat align 2 {
  %3 = alloca ptr, align 8
  %4 = alloca ptr, align 8
  %5 = alloca i32, align 4
  store ptr %0, ptr %4, align 8, !tbaa !45
  store i32 %1, ptr %5, align 4, !tbaa !9
  %6 = load ptr, ptr %4, align 8
  %7 = load i32, ptr %5, align 4, !tbaa !9
  %8 = icmp ne i32 %7, 0
  br i1 %8, label %9, label %12

9:                                                ; preds = %2
  %10 = load i32, ptr %5, align 4, !tbaa !9
  %11 = call noundef ptr @_ZN18btAlignedAllocatorI18btSolverConstraintLj16EE8allocateEiPPKS0_(ptr noundef nonnull align 1 dereferenceable(1) %6, i32 noundef %10, ptr noundef null)
  store ptr %11, ptr %3, align 8
  br label %13

12:                                               ; preds = %2
  store ptr null, ptr %3, align 8
  br label %13

13:                                               ; preds = %12, %9
  %14 = load ptr, ptr %3, align 8
  ret ptr %14
}

; Function Attrs: inlinehint mustprogress uwtable
define linkonce_odr dso_local void @_ZN20btAlignedObjectArrayI18btSolverConstraintE7reserveEi(ptr noundef nonnull align 8 dereferenceable(25) %0, i32 noundef %1) #6 comdat align 2 {
  %3 = alloca ptr, align 8
  %4 = alloca i32, align 4
  %5 = alloca ptr, align 8
  store ptr %0, ptr %3, align 8, !tbaa !45
  store i32 %1, ptr %4, align 4, !tbaa !9
  %6 = load ptr, ptr %3, align 8
  %7 = call noundef i32 @_ZNK20btAlignedObjectArrayI18btSolverConstraintE8capacityEv(ptr noundef nonnull align 8 dereferenceable(25) %6)
  %8 = load i32, ptr %4, align 4, !tbaa !9
  %9 = icmp slt i32 %7, %8
  br i1 %9, label %10, label %21

10:                                               ; preds = %2
  call void @llvm.lifetime.start.p0(i64 8, ptr %5) #15
  %11 = load i32, ptr %4, align 4, !tbaa !9
  %12 = call noundef ptr @_ZN20btAlignedObjectArrayI18btSolverConstraintE8allocateEi(ptr noundef nonnull align 8 dereferenceable(25) %6, i32 noundef %11)
  store ptr %12, ptr %5, align 8, !tbaa !16
  %13 = call noundef i32 @_ZNK20btAlignedObjectArrayI18btSolverConstraintE4sizeEv(ptr noundef nonnull align 8 dereferenceable(25) %6)
  %14 = load ptr, ptr %5, align 8, !tbaa !16
  call void @_ZNK20btAlignedObjectArrayI18btSolverConstraintE4copyEiiPS0_(ptr noundef nonnull align 8 dereferenceable(25) %6, i32 noundef 0, i32 noundef %13, ptr noundef %14)
  %15 = call noundef i32 @_ZNK20btAlignedObjectArrayI18btSolverConstraintE4sizeEv(ptr noundef nonnull align 8 dereferenceable(25) %6)
  call void @_ZN20btAlignedObjectArrayI18btSolverConstraintE7destroyEii(ptr noundef nonnull align 8 dereferenceable(25) %6, i32 noundef 0, i32 noundef %15)
  call void @_ZN20btAlignedObjectArrayI18btSolverConstraintE10deallocateEv(ptr noundef nonnull align 8 dereferenceable(25) %6)
  %16 = getelementptr inbounds nuw %class.btAlignedObjectArray.0, ptr %6, i32 0, i32 5
  store i8 1, ptr %16, align 8, !tbaa !252
  %17 = load ptr, ptr %5, align 8, !tbaa !16
  %18 = getelementptr inbounds nuw %class.btAlignedObjectArray.0, ptr %6, i32 0, i32 4
  store ptr %17, ptr %18, align 8, !tbaa !120
  %19 = load i32, ptr %4, align 4, !tbaa !9
  %20 = getelementptr inbounds nuw %class.btAlignedObjectArray.0, ptr %6, i32 0, i32 2
  store i32 %19, ptr %20, align 8, !tbaa !253
  call void @llvm.lifetime.end.p0(i64 8, ptr %5) #15
  br label %21

21:                                               ; preds = %10, %2
  ret void
}

; Function Attrs: inlinehint mustprogress nounwind uwtable
define linkonce_odr dso_local noundef i32 @_ZN20btAlignedObjectArrayI18btSolverConstraintE9allocSizeEi(ptr noundef nonnull align 8 dereferenceable(25) %0, i32 noundef %1) #3 comdat align 2 {
  %3 = alloca ptr, align 8
  %4 = alloca i32, align 4
  store ptr %0, ptr %3, align 8, !tbaa !45
  store i32 %1, ptr %4, align 4, !tbaa !9
  %5 = load i32, ptr %4, align 4, !tbaa !9
  %6 = icmp ne i32 %5, 0
  br i1 %6, label %7, label %10

7:                                                ; preds = %2
  %8 = load i32, ptr %4, align 4, !tbaa !9
  %9 = mul nsw i32 %8, 2
  br label %11

10:                                               ; preds = %2
  br label %11

11:                                               ; preds = %10, %7
  %12 = phi i32 [ %9, %7 ], [ 1, %10 ]
  ret i32 %12
}

; Function Attrs: inlinehint mustprogress nounwind uwtable
define linkonce_odr dso_local noundef i32 @_ZNK20btAlignedObjectArrayI18btSolverConstraintE8capacityEv(ptr noundef nonnull align 8 dereferenceable(25) %0) #3 comdat align 2 {
  %2 = alloca ptr, align 8
  store ptr %0, ptr %2, align 8, !tbaa !45
  %3 = load ptr, ptr %2, align 8
  %4 = getelementptr inbounds nuw %class.btAlignedObjectArray.0, ptr %3, i32 0, i32 2
  %5 = load i32, ptr %4, align 8, !tbaa !253
  ret i32 %5
}

; Function Attrs: inlinehint mustprogress nounwind uwtable
define linkonce_odr dso_local noundef i32 @_ZNK20btAlignedObjectArrayI18btSolverConstraintE4sizeEv(ptr noundef nonnull align 8 dereferenceable(25) %0) #3 comdat align 2 {
  %2 = alloca ptr, align 8
  store ptr %0, ptr %2, align 8, !tbaa !45
  %3 = load ptr, ptr %2, align 8
  %4 = getelementptr inbounds nuw %class.btAlignedObjectArray.0, ptr %3, i32 0, i32 1
  %5 = load i32, ptr %4, align 4, !tbaa !119
  ret i32 %5
}

; Function Attrs: inlinehint mustprogress uwtable
define linkonce_odr dso_local noundef nonnull align 8 dereferenceable(160) ptr @_ZN20btAlignedObjectArrayI18btSolverConstraintE21expandNonInitializingEv(ptr noundef nonnull align 8 dereferenceable(25) %0) #6 comdat align 2 {
  %2 = alloca ptr, align 8
  %3 = alloca i32, align 4
  store ptr %0, ptr %2, align 8, !tbaa !45
  %4 = load ptr, ptr %2, align 8
  call void @llvm.lifetime.start.p0(i64 4, ptr %3) #15
  %5 = call noundef i32 @_ZNK20btAlignedObjectArrayI18btSolverConstraintE4sizeEv(ptr noundef nonnull align 8 dereferenceable(25) %4)
  store i32 %5, ptr %3, align 4, !tbaa !9
  %6 = load i32, ptr %3, align 4, !tbaa !9
  %7 = call noundef i32 @_ZNK20btAlignedObjectArrayI18btSolverConstraintE8capacityEv(ptr noundef nonnull align 8 dereferenceable(25) %4)
  %8 = icmp eq i32 %6, %7
  br i1 %8, label %9, label %12

9:                                                ; preds = %1
  %10 = call noundef i32 @_ZNK20btAlignedObjectArrayI18btSolverConstraintE4sizeEv(ptr noundef nonnull align 8 dereferenceable(25) %4)
  %11 = call noundef i32 @_ZN20btAlignedObjectArrayI18btSolverConstraintE9allocSizeEi(ptr noundef nonnull align 8 dereferenceable(25) %4, i32 noundef %10)
  call void @_ZN20btAlignedObjectArrayI18btSolverConstraintE7reserveEi(ptr noundef nonnull align 8 dereferenceable(25) %4, i32 noundef %11)
  br label %12

12:                                               ; preds = %9, %1
  %13 = getelementptr inbounds nuw %class.btAlignedObjectArray.0, ptr %4, i32 0, i32 1
  %14 = load i32, ptr %13, align 4, !tbaa !119
  %15 = add nsw i32 %14, 1
  store i32 %15, ptr %13, align 4, !tbaa !119
  %16 = getelementptr inbounds nuw %class.btAlignedObjectArray.0, ptr %4, i32 0, i32 4
  %17 = load ptr, ptr %16, align 8, !tbaa !120
  %18 = load i32, ptr %3, align 4, !tbaa !9
  %19 = sext i32 %18 to i64
  %20 = getelementptr inbounds %struct.btSolverConstraint, ptr %17, i64 %19
  call void @llvm.lifetime.end.p0(i64 4, ptr %3) #15
  ret ptr %20
}

; Function Attrs: mustprogress uwtable
define dso_local noundef nonnull align 8 dereferenceable(160) ptr @_ZN35btSequentialImpulseConstraintSolver30addTorsionalFrictionConstraintERK9btVector3iiiR15btManifoldPointfS2_S2_P17btCollisionObjectS6_fff(ptr noundef nonnull align 8 dereferenceable(408) %0, ptr noundef nonnull align 4 dereferenceable(16) %1, i32 noundef %2, i32 noundef %3, i32 noundef %4, ptr noundef nonnull align 8 dereferenceable(204) %5, float noundef %6, ptr noundef nonnull align 4 dereferenceable(16) %7, ptr noundef nonnull align 4 dereferenceable(16) %8, ptr noundef %9, ptr noundef %10, float noundef %11, float noundef %12, float noundef %13) #2 align 2 {
  %15 = alloca ptr, align 8
  %16 = alloca ptr, align 8
  %17 = alloca i32, align 4
  %18 = alloca i32, align 4
  %19 = alloca i32, align 4
  %20 = alloca ptr, align 8
  %21 = alloca float, align 4
  %22 = alloca ptr, align 8
  %23 = alloca ptr, align 8
  %24 = alloca ptr, align 8
  %25 = alloca ptr, align 8
  %26 = alloca float, align 4
  %27 = alloca float, align 4
  %28 = alloca float, align 4
  %29 = alloca ptr, align 8
  store ptr %0, ptr %15, align 8, !tbaa !12
  store ptr %1, ptr %16, align 8, !tbaa !83
  store i32 %2, ptr %17, align 4, !tbaa !9
  store i32 %3, ptr %18, align 4, !tbaa !9
  store i32 %4, ptr %19, align 4, !tbaa !9
  store ptr %5, ptr %20, align 8, !tbaa !104
  store float %6, ptr %21, align 4, !tbaa !66
  store ptr %7, ptr %22, align 8, !tbaa !83
  store ptr %8, ptr %23, align 8, !tbaa !83
  store ptr %9, ptr %24, align 8, !tbaa !74
  store ptr %10, ptr %25, align 8, !tbaa !74
  store float %11, ptr %26, align 4, !tbaa !66
  store float %12, ptr %27, align 4, !tbaa !66
  store float %13, ptr %28, align 4, !tbaa !66
  %30 = load ptr, ptr %15, align 8
  call void @llvm.lifetime.start.p0(i64 8, ptr %29) #15
  %31 = getelementptr inbounds nuw %class.btSequentialImpulseConstraintSolver, ptr %30, i32 0, i32 5
  %32 = call noundef nonnull align 8 dereferenceable(160) ptr @_ZN20btAlignedObjectArrayI18btSolverConstraintE21expandNonInitializingEv(ptr noundef nonnull align 8 dereferenceable(25) %31)
  store ptr %32, ptr %29, align 8, !tbaa !16
  %33 = load i32, ptr %19, align 4, !tbaa !9
  %34 = load ptr, ptr %29, align 8, !tbaa !16
  %35 = getelementptr inbounds nuw %struct.btSolverConstraint, ptr %34, i32 0, i32 17
  store i32 %33, ptr %35, align 4, !tbaa !118
  %36 = load ptr, ptr %29, align 8, !tbaa !16
  %37 = load ptr, ptr %16, align 8, !tbaa !83
  %38 = load i32, ptr %17, align 4, !tbaa !9
  %39 = load i32, ptr %18, align 4, !tbaa !9
  %40 = load ptr, ptr %20, align 8, !tbaa !104
  %41 = load float, ptr %21, align 4, !tbaa !66
  %42 = load ptr, ptr %22, align 8, !tbaa !83
  %43 = load ptr, ptr %23, align 8, !tbaa !83
  %44 = load ptr, ptr %24, align 8, !tbaa !74
  %45 = load ptr, ptr %25, align 8, !tbaa !74
  %46 = load float, ptr %26, align 4, !tbaa !66
  %47 = load float, ptr %27, align 4, !tbaa !66
  %48 = load float, ptr %28, align 4, !tbaa !66
  call void @_ZN35btSequentialImpulseConstraintSolver32setupTorsionalFrictionConstraintER18btSolverConstraintRK9btVector3iiR15btManifoldPointfS4_S4_P17btCollisionObjectS8_fff(ptr noundef nonnull align 8 dereferenceable(408) %30, ptr noundef nonnull align 8 dereferenceable(160) %36, ptr noundef nonnull align 4 dereferenceable(16) %37, i32 noundef %38, i32 noundef %39, ptr noundef nonnull align 8 dereferenceable(204) %40, float noundef %41, ptr noundef nonnull align 4 dereferenceable(16) %42, ptr noundef nonnull align 4 dereferenceable(16) %43, ptr noundef %44, ptr noundef %45, float noundef %46, float noundef %47, float noundef %48)
  %49 = load ptr, ptr %29, align 8, !tbaa !16
  call void @llvm.lifetime.end.p0(i64 8, ptr %29) #15
  ret ptr %49
}