; Function Attrs: mustprogress uwtable
define dso_local noundef nonnull align 8 dereferenceable(160) ptr @_ZN35btSequentialImpulseConstraintSolver30addTorsionalFrictionConstraintERK9btVector3iiiR15btManifoldPointfS2_S2_P17btCollisionObjectS6_fff(ptr noundef nonnull align 8 captures(none) dereferenceable(408) %0, ptr noundef nonnull readonly align 4 captures(none) dereferenceable(16) %1, i32 noundef %2, i32 noundef %3, i32 noundef %4, ptr nonnull readnone align 8 captures(none) %5, float noundef %6, ptr nonnull readnone align 4 captures(none) %7, ptr nonnull readnone align 4 captures(none) %8, ptr readnone captures(none) %9, ptr readnone captures(none) %10, float %11, float noundef %12, float noundef %13) local_unnamed_addr #0 align 2 {
  %15 = getelementptr inbounds nuw i8, ptr %0, i64 140
  %16 = load i32, ptr %15, align 4, !tbaa !37
  %17 = getelementptr inbounds nuw i8, ptr %0, i64 144
  %18 = load i32, ptr %17, align 8, !tbaa !38
  %19 = icmp eq i32 %16, %18
  br i1 %19, label %20, label %_ZN20btAlignedObjectArrayI18btSolverConstraintE21expandNonInitializingEv.exit

20:                                               ; preds = %14
  %.not.i.i = icmp eq i32 %16, 0
  %21 = shl nsw i32 %16, 1
  %22 = select i1 %.not.i.i, i32 1, i32 %21
  %23 = icmp slt i32 %16, %22
  br i1 %23, label %24, label %_ZN20btAlignedObjectArrayI18btSolverConstraintE21expandNonInitializingEv.exit

24:                                               ; preds = %20
  %.not.i.i.i = icmp eq i32 %22, 0
  br i1 %.not.i.i.i, label %_ZN20btAlignedObjectArrayI18btSolverConstraintE8allocateEi.exit.i.i, label %25

25:                                               ; preds = %24
  %26 = sext i32 %22 to i64
  %27 = mul nsw i64 %26, 160
  %28 = tail call noundef ptr @_Z22btAlignedAllocInternalmi(i64 noundef %27, i32 noundef 16)
  %.pre.i = load i32, ptr %15, align 4, !tbaa !37
  br label %_ZN20btAlignedObjectArrayI18btSolverConstraintE8allocateEi.exit.i.i

_ZN20btAlignedObjectArrayI18btSolverConstraintE8allocateEi.exit.i.i: ; preds = %25, %24
  %29 = phi i32 [ %.pre.i, %25 ], [ %16, %24 ]
  %.0.i.i.i = phi ptr [ %28, %25 ], [ null, %24 ]
  %30 = icmp sgt i32 %29, 0
  br i1 %30, label %.lr.ph.i.i.i, label %_ZNK20btAlignedObjectArrayI18btSolverConstraintE4copyEiiPS0_.exit.i.i

.lr.ph.i.i.i:                                     ; preds = %_ZN20btAlignedObjectArrayI18btSolverConstraintE8allocateEi.exit.i.i
  %31 = getelementptr inbounds nuw i8, ptr %0, i64 152
  %wide.trip.count.i.i.i = zext nneg i32 %29 to i64
  br label %32

32:                                               ; preds = %32, %.lr.ph.i.i.i
  %indvars.iv.i.i.i = phi i64 [ 0, %.lr.ph.i.i.i ], [ %indvars.iv.next.i.i.i, %32 ]
  %33 = getelementptr inbounds nuw %struct.btSolverConstraint, ptr %.0.i.i.i, i64 %indvars.iv.i.i.i
  %34 = load ptr, ptr %31, align 8, !tbaa !36
  %35 = getelementptr inbounds nuw %struct.btSolverConstraint, ptr %34, i64 %indvars.iv.i.i.i
  tail call void @llvm.memcpy.p0.p0.i64(ptr noundef nonnull align 8 dereferenceable(160) %33, ptr noundef nonnull align 8 dereferenceable(160) %35, i64 160, i1 false), !tbaa.struct !98
  %indvars.iv.next.i.i.i = add nuw nsw i64 %indvars.iv.i.i.i, 1
  %exitcond.not.i.i.i = icmp eq i64 %indvars.iv.next.i.i.i, %wide.trip.count.i.i.i
  br i1 %exitcond.not.i.i.i, label %_ZNK20btAlignedObjectArrayI18btSolverConstraintE4copyEiiPS0_.exit.i.i, label %32, !llvm.loop !99

_ZNK20btAlignedObjectArrayI18btSolverConstraintE4copyEiiPS0_.exit.i.i: ; preds = %32, %_ZN20btAlignedObjectArrayI18btSolverConstraintE8allocateEi.exit.i.i
  %36 = getelementptr inbounds nuw i8, ptr %0, i64 152
  %37 = load ptr, ptr %36, align 8, !tbaa !36
  %.not.i5.i.i = icmp eq ptr %37, null
  br i1 %.not.i5.i.i, label %_ZN20btAlignedObjectArrayI18btSolverConstraintE10deallocateEv.exit.i.i, label %38

38:                                               ; preds = %_ZNK20btAlignedObjectArrayI18btSolverConstraintE4copyEiiPS0_.exit.i.i
  %39 = getelementptr inbounds nuw i8, ptr %0, i64 160
  %40 = load i8, ptr %39, align 8, !tbaa !35, !range !71, !noundef !72
  %41 = trunc nuw i8 %40 to i1
  br i1 %41, label %42, label %_ZN20btAlignedObjectArrayI18btSolverConstraintE10deallocateEv.exit.i.i

42:                                               ; preds = %38
  tail call void @_Z21btAlignedFreeInternalPv(ptr noundef nonnull %37)
  br label %_ZN20btAlignedObjectArrayI18btSolverConstraintE10deallocateEv.exit.i.i

_ZN20btAlignedObjectArrayI18btSolverConstraintE10deallocateEv.exit.i.i: ; preds = %42, %38, %_ZNK20btAlignedObjectArrayI18btSolverConstraintE4copyEiiPS0_.exit.i.i
  %43 = getelementptr inbounds nuw i8, ptr %0, i64 160
  store i8 1, ptr %43, align 8, !tbaa !35
  store ptr %.0.i.i.i, ptr %36, align 8, !tbaa !36
  store i32 %22, ptr %17, align 8, !tbaa !38
  %.pre2.i = load i32, ptr %15, align 4, !tbaa !37
  br label %_ZN20btAlignedObjectArrayI18btSolverConstraintE21expandNonInitializingEv.exit

_ZN20btAlignedObjectArrayI18btSolverConstraintE21expandNonInitializingEv.exit: ; preds = %14, %20, %_ZN20btAlignedObjectArrayI18btSolverConstraintE10deallocateEv.exit.i.i
  %44 = phi i32 [ %.pre2.i, %_ZN20btAlignedObjectArrayI18btSolverConstraintE10deallocateEv.exit.i.i ], [ %16, %20 ], [ %16, %14 ]
  %45 = add nsw i32 %44, 1
  store i32 %45, ptr %15, align 4, !tbaa !37
  %46 = getelementptr inbounds nuw i8, ptr %0, i64 152
  %47 = load ptr, ptr %46, align 8, !tbaa !36
  %48 = sext i32 %16 to i64
  %49 = getelementptr inbounds %struct.btSolverConstraint, ptr %47, i64 %48
  %50 = getelementptr inbounds nuw i8, ptr %49, i64 148
  store i32 %4, ptr %50, align 4, !tbaa !101
  tail call void @_ZN35btSequentialImpulseConstraintSolver32setupTorsionalFrictionConstraintER18btSolverConstraintRK9btVector3iiR15btManifoldPointfS4_S4_P17btCollisionObjectS8_fff(ptr noundef nonnull align 8 dereferenceable(408) %0, ptr noundef nonnull align 8 dereferenceable(160) %49, ptr noundef nonnull align 4 dereferenceable(16) %1, i32 noundef %2, i32 noundef %3, ptr nonnull align 8 poison, float noundef %6, ptr nonnull align 4 poison, ptr nonnull align 4 poison, ptr poison, ptr poison, float poison, float noundef %12, float noundef %13)
  ret ptr %49
}